target datalayout = "e-m:e-p270:32:32-p271:32:32-p272:64:64-i64:64-i128:128-f80:128-n8:16:32:64-S128"
target triple = "x86_64-pc-linux-gnu"

%struct.nghttp2_stream = type { i32, %struct.nghttp2_pq_entry, i64, i64, i64, i64, ptr, ptr, ptr, i64, i32, i32, i32, i32, i32, i32, i32, i16, i32, i8, i8, i8, i8, i8, i8 }
%struct.nghttp2_pq_entry = type { i64 }
%struct.nghttp2_headers = type { %struct.nghttp2_frame_hd, i64, %struct.nghttp2_priority_spec, ptr, i64, i32 }
%struct.nghttp2_frame_hd = type { i64, i32, i8, i8, i8 }
%struct.nghttp2_priority_spec = type { i32, i32, i8 }
%struct.nghttp2_push_promise = type { %struct.nghttp2_frame_hd, i64, ptr, i64, i32, i8 }
%struct.nghttp2_nv = type { ptr, ptr, i64, i64, i8 }

@.str.2 = private unnamed_addr constant [7 x i8] c":metho\00", align 1
@.str.3 = private unnamed_addr constant [8 x i8] c"CONNECT\00", align 1
@.str.4 = private unnamed_addr constant [5 x i8] c"HEAD\00", align 1

; Function Attrs: nounwind uwtable
define hidden void @nghttp2_http_record_request_method(ptr noundef %0, ptr noundef %1) #0 {
  %3 = alloca ptr, align 8
  %4 = alloca ptr, align 8
  %5 = alloca ptr, align 8
  %6 = alloca i64, align 8
  %7 = alloca i64, align 8
  %8 = alloca i32, align 4
  %9 = alloca ptr, align 8
  store ptr %0, ptr %3, align 8, !tbaa !8
  store ptr %1, ptr %4, align 8, !tbaa !10
  call void @llvm.lifetime.start.p0(i64 8, ptr %5) #6
  call void @llvm.lifetime.start.p0(i64 8, ptr %6) #6
  call void @llvm.lifetime.start.p0(i64 8, ptr %7) #6
  %10 = load ptr, ptr %4, align 8, !tbaa !10
  %11 = getelementptr inbounds nuw %struct.nghttp2_frame_hd, ptr %10, i32 0, i32 2
  %12 = load i8, ptr %11, align 4, !tbaa !21
  %13 = zext i8 %12 to i32
  switch i32 %13, label %28 [
    i32 1, label %14
    i32 5, label %21
  ]

14:                                               ; preds = %2
  %15 = load ptr, ptr %4, align 8, !tbaa !10
  %16 = getelementptr inbounds nuw %struct.nghttp2_headers, ptr %15, i32 0, i32 3
  %17 = load ptr, ptr %16, align 8, !tbaa !21
  store ptr %17, ptr %5, align 8, !tbaa !10
  %18 = load ptr, ptr %4, align 8, !tbaa !10
  %19 = getelementptr inbounds nuw %struct.nghttp2_headers, ptr %18, i32 0, i32 4
  %20 = load i64, ptr %19, align 8, !tbaa !21
  store i64 %20, ptr %6, align 8, !tbaa !22
  br label %29

21:                                               ; preds = %2
  %22 = load ptr, ptr %4, align 8, !tbaa !10
  %23 = getelementptr inbounds nuw %struct.nghttp2_push_promise, ptr %22, i32 0, i32 2
  %24 = load ptr, ptr %23, align 8, !tbaa !21
  store ptr %24, ptr %5, align 8, !tbaa !10
  %25 = load ptr, ptr %4, align 8, !tbaa !10
  %26 = getelementptr inbounds nuw %struct.nghttp2_push_promise, ptr %25, i32 0, i32 3
  %27 = load i64, ptr %26, align 8, !tbaa !21
  store i64 %27, ptr %6, align 8, !tbaa !22
  br label %29

28:                                               ; preds = %2
  store i32 1, ptr %8, align 4
  br label %106

29:                                               ; preds = %21, %14
  store i64 0, ptr %7, align 8, !tbaa !22
  br label %30

30:                                               ; preds = %102, %29
  %31 = load i64, ptr %7, align 8, !tbaa !22
  %32 = load i64, ptr %6, align 8, !tbaa !22
  %33 = icmp ult i64 %31, %32
  br i1 %33, label %34, label %105

34:                                               ; preds = %30
  call void @llvm.lifetime.start.p0(i64 8, ptr %9) #6
  %35 = load ptr, ptr %5, align 8, !tbaa !10
  %36 = load i64, ptr %7, align 8, !tbaa !22
  %37 = getelementptr inbounds nuw %struct.nghttp2_nv, ptr %35, i64 %36
  store ptr %37, ptr %9, align 8, !tbaa !10
  %38 = load ptr, ptr %9, align 8, !tbaa !10
  %39 = getelementptr inbounds nuw %struct.nghttp2_nv, ptr %38, i32 0, i32 2
  %40 = load i64, ptr %39, align 8, !tbaa !66
  %41 = icmp eq i64 %40, 7
  br i1 %41, label %42, label %60

42:                                               ; preds = %34
  %43 = load ptr, ptr %9, align 8, !tbaa !10
  %44 = getelementptr inbounds nuw %struct.nghttp2_nv, ptr %43, i32 0, i32 0
  %45 = load ptr, ptr %44, align 8, !tbaa !68
  %46 = getelementptr inbounds i8, ptr %45, i64 6
  %47 = load i8, ptr %46, align 1, !tbaa !21
  %48 = zext i8 %47 to i32
  %49 = icmp eq i32 %48, 100
  br i1 %49, label %50, label %60

50:                                               ; preds = %42
  %51 = load ptr, ptr %9, align 8, !tbaa !10
  %52 = getelementptr inbounds nuw %struct.nghttp2_nv, ptr %51, i32 0, i32 0
  %53 = load ptr, ptr %52, align 8, !tbaa !68
  %54 = load ptr, ptr %9, align 8, !tbaa !10
  %55 = getelementptr inbounds nuw %struct.nghttp2_nv, ptr %54, i32 0, i32 2
  %56 = load i64, ptr %55, align 8, !tbaa !66
  %57 = sub i64 %56, 1
  %58 = call i32 @memcmp(ptr noundef @.str.2, ptr noundef %53, i64 noundef %57) #8
  %59 = icmp eq i32 %58, 0
  br i1 %59, label %61, label %60

60:                                               ; preds = %50, %42, %34
  store i32 5, ptr %8, align 4
  br label %100

61:                                               ; preds = %50
  %62 = load ptr, ptr %9, align 8, !tbaa !10
  %63 = getelementptr inbounds nuw %struct.nghttp2_nv, ptr %62, i32 0, i32 3
  %64 = load i64, ptr %63, align 8, !tbaa !69
  %65 = icmp eq i64 7, %64
  br i1 %65, label %66, label %80

66:                                               ; preds = %61
  %67 = load ptr, ptr %9, align 8, !tbaa !10
  %68 = getelementptr inbounds nuw %struct.nghttp2_nv, ptr %67, i32 0, i32 1
  %69 = load ptr, ptr %68, align 8, !tbaa !70
  %70 = load ptr, ptr %9, align 8, !tbaa !10
  %71 = getelementptr inbounds nuw %struct.nghttp2_nv, ptr %70, i32 0, i32 3
  %72 = load i64, ptr %71, align 8, !tbaa !69
  %73 = call i32 @memcmp(ptr noundef @.str.3, ptr noundef %69, i64 noundef %72) #8
  %74 = icmp eq i32 %73, 0
  br i1 %74, label %75, label %80

75:                                               ; preds = %66
  %76 = load ptr, ptr %3, align 8, !tbaa !8
  %77 = getelementptr inbounds nuw %struct.nghttp2_stream, ptr %76, i32 0, i32 18
  %78 = load i32, ptr %77, align 8, !tbaa !25
  %79 = or i32 %78, 128
  store i32 %79, ptr %77, align 8, !tbaa !25
  store i32 1, ptr %8, align 4
  br label %100

80:                                               ; preds = %66, %61
  %81 = load ptr, ptr %9, align 8, !tbaa !10
  %82 = getelementptr inbounds nuw %struct.nghttp2_nv, ptr %81, i32 0, i32 3
  %83 = load i64, ptr %82, align 8, !tbaa !69
  %84 = icmp eq i64 4, %83
  br i1 %84, label %85, label %99

85:                                               ; preds = %80
  %86 = load ptr, ptr %9, align 8, !tbaa !10
  %87 = getelementptr inbounds nuw %struct.nghttp2_nv, ptr %86, i32 0, i32 1
  %88 = load ptr, ptr %87, align 8, !tbaa !70
  %89 = load ptr, ptr %9, align 8, !tbaa !10
  %90 = getelementptr inbounds nuw %struct.nghttp2_nv, ptr %89, i32 0, i32 3
  %91 = load i64, ptr %90, align 8, !tbaa !69
  %92 = call i32 @memcmp(ptr noundef @.str.4, ptr noundef %88, i64 noundef %91) #8
  %93 = icmp eq i32 %92, 0
  br i1 %93, label %94, label %99

94:                                               ; preds = %85
  %95 = load ptr, ptr %3, align 8, !tbaa !8
  %96 = getelementptr inbounds nuw %struct.nghttp2_stream, ptr %95, i32 0, i32 18
  %97 = load i32, ptr %96, align 8, !tbaa !25
  %98 = or i32 %97, 256
  store i32 %98, ptr %96, align 8, !tbaa !25
  store i32 1, ptr %8, align 4
  br label %100

99:                                               ; preds = %85, %80
  store i32 1, ptr %8, align 4
  br label %100

100:                                              ; preds = %99, %94, %75, %60
  call void @llvm.lifetime.end.p0(i64 8, ptr %9) #6
  %101 = load i32, ptr %8, align 4
  switch i32 %101, label %106 [
    i32 5, label %102
  ]

102:                                              ; preds = %100
  %103 = load i64, ptr %7, align 8, !tbaa !22
  %104 = add i64 %103, 1
  store i64 %104, ptr %7, align 8, !tbaa !22
  br label %30, !llvm.loop !71

105:                                              ; preds = %30
  store i32 0, ptr %8, align 4
  br label %106

106:                                              ; preds = %105, %100, %28
  call void @llvm.lifetime.end.p0(i64 8, ptr %7) #6
  call void @llvm.lifetime.end.p0(i64 8, ptr %6) #6
  call void @llvm.lifetime.end.p0(i64 8, ptr %5) #6
  %107 = load i32, ptr %8, align 4
  switch i32 %107, label %109 [
    i32 0, label %108
    i32 1, label %108
  ]

108:                                              ; preds = %106, %106
  ret void

109:                                              ; preds = %106
  unreachable
}