; Function Attrs: nofree nounwind memory(read, argmem: readwrite, inaccessiblemem: none) uwtable
define hidden void @nghttp2_http_record_request_method(ptr noundef captures(none) %0, ptr noundef readonly captures(none) %1) local_unnamed_addr #6 {
  %3 = getelementptr inbounds nuw i8, ptr %1, i64 12
  %4 = load i8, ptr %3, align 4, !tbaa !15
  switch i8 %4, label %.critedge [
    i8 1, label %6
    i8 5, label %5
  ]

5:                                                ; preds = %2
  br label %6

6:                                                ; preds = %2, %5
  %.sink33 = phi i64 [ 24, %5 ], [ 40, %2 ]
  %.sink = phi i64 [ 32, %5 ], [ 48, %2 ]
  %7 = getelementptr inbounds nuw i8, ptr %1, i64 %.sink33
  %8 = getelementptr inbounds nuw i8, ptr %1, i64 %.sink
  %.0 = load ptr, ptr %7, align 8, !tbaa !15
  %.024 = load i64, ptr %8, align 8, !tbaa !15
  %.not = icmp eq i64 %.024, 0
  br i1 %.not, label %.critedge, label %.lr.ph

.lr.ph:                                           ; preds = %6, %31
  %.02330 = phi i64 [ %32, %31 ], [ 0, %6 ]
  %9 = getelementptr inbounds nuw %struct.nghttp2_nv, ptr %.0, i64 %.02330
  %10 = getelementptr inbounds nuw i8, ptr %9, i64 16
  %11 = load i64, ptr %10, align 8, !tbaa !61
  %12 = icmp eq i64 %11, 7
  br i1 %12, label %13, label %31

13:                                               ; preds = %.lr.ph
  %14 = load ptr, ptr %9, align 8, !tbaa !63
  %15 = getelementptr inbounds nuw i8, ptr %14, i64 6
  %16 = load i8, ptr %15, align 1, !tbaa !15
  %17 = icmp eq i8 %16, 100
  br i1 %17, label %18, label %31

18:                                               ; preds = %13
  %bcmp = tail call i32 @bcmp(ptr noundef nonnull dereferenceable(6) @.str.2, ptr noundef nonnull dereferenceable(6) %14, i64 6)
  %19 = icmp eq i32 %bcmp, 0
  br i1 %19, label %20, label %31

20:                                               ; preds = %18
  %21 = getelementptr inbounds nuw i8, ptr %9, i64 24
  %22 = load i64, ptr %21, align 8, !tbaa !64
  switch i64 %22, label %.critedge [
    i64 7, label %23
    i64 4, label %27
  ]

23:                                               ; preds = %20
  %24 = getelementptr inbounds nuw i8, ptr %9, i64 8
  %25 = load ptr, ptr %24, align 8, !tbaa !65
  %bcmp28 = tail call i32 @bcmp(ptr noundef nonnull dereferenceable(7) @.str.3, ptr noundef nonnull dereferenceable(7) %25, i64 7)
  %26 = icmp eq i32 %bcmp28, 0
  br i1 %26, label %.critedge.sink.split, label %.critedge

27:                                               ; preds = %20
  %28 = getelementptr inbounds nuw i8, ptr %9, i64 8
  %29 = load ptr, ptr %28, align 8, !tbaa !65
  %bcmp29 = tail call i32 @bcmp(ptr noundef nonnull dereferenceable(4) @.str.4, ptr noundef nonnull dereferenceable(4) %29, i64 4)
  %30 = icmp eq i32 %bcmp29, 0
  br i1 %30, label %.critedge.sink.split, label %.critedge

31:                                               ; preds = %18, %13, %.lr.ph
  %32 = add nuw i64 %.02330, 1
  %exitcond.not = icmp eq i64 %32, %.024
  br i1 %exitcond.not, label %.critedge, label %.lr.ph, !llvm.loop !66

.critedge.sink.split:                             ; preds = %27, %23
  %.sink37 = phi i32 [ 128, %23 ], [ 256, %27 ]
  %33 = getelementptr inbounds nuw i8, ptr %0, i64 112
  %34 = load i32, ptr %33, align 8, !tbaa !18
  %35 = or i32 %34, %.sink37
  store i32 %35, ptr %33, align 8, !tbaa !18
  br label %.critedge

.critedge:                                        ; preds = %31, %.critedge.sink.split, %6, %20, %23, %27, %2
  ret void
}